target datalayout = "e-m:e-p270:32:32-p271:32:32-p272:64:64-i64:64-i128:128-f80:128-n8:16:32:64-S128"
target triple = "x86_64-pc-linux-gnu"

%struct.Kit_DsdNtk_t_ = type { i16, i16, i16, i16, ptr, ptr, ptr }
%struct.Kit_DsdObj_t_ = type { i32, [0 x i16] }

@.str.1 = private unnamed_addr constant [3 x i8] c"%c\00", align 1
@.str.2 = private unnamed_addr constant [7 x i8] c"Const1\00", align 1
@.str.3 = private unnamed_addr constant [2 x i8] c"[\00", align 1
@.str.4 = private unnamed_addr constant [2 x i8] c"(\00", align 1
@.str.5 = private unnamed_addr constant [2 x i8] c"!\00", align 1
@.str.6 = private unnamed_addr constant [2 x i8] c"]\00", align 1
@.str.7 = private unnamed_addr constant [2 x i8] c")\00", align 1

; Function Attrs: inlinehint nounwind uwtable
define internal i32 @Abc_Lit2Var(i32 noundef %0) #4 {
  %2 = alloca i32, align 4
  store i32 %0, ptr %2, align 4, !tbaa !3
  %3 = load i32, ptr %2, align 4, !tbaa !3
  %4 = ashr i32 %3, 1
  ret i32 %4
}

; Function Attrs: inlinehint nounwind uwtable
define internal i32 @Abc_LitIsCompl(i32 noundef %0) #4 {
  %2 = alloca i32, align 4
  store i32 %0, ptr %2, align 4, !tbaa !3
  %3 = load i32, ptr %2, align 4, !tbaa !3
  %4 = and i32 %3, 1
  ret i32 %4
}

; Function Attrs: inlinehint nounwind uwtable
define internal ptr @Kit_DsdNtkObj(ptr noundef %0, i32 noundef %1) #4 {
  %3 = alloca ptr, align 8
  %4 = alloca i32, align 4
  store ptr %0, ptr %3, align 8, !tbaa !37
  store i32 %1, ptr %4, align 4, !tbaa !3
  %5 = load i32, ptr %4, align 4, !tbaa !3
  %6 = load ptr, ptr %3, align 8, !tbaa !37
  %7 = getelementptr inbounds nuw %struct.Kit_DsdNtk_t_, ptr %6, i32 0, i32 0
  %8 = load i16, ptr %7, align 8, !tbaa !41
  %9 = zext i16 %8 to i32
  %10 = icmp slt i32 %5, %9
  br i1 %10, label %11, label %12

11:                                               ; preds = %2
  br label %25

12:                                               ; preds = %2
  %13 = load ptr, ptr %3, align 8, !tbaa !37
  %14 = getelementptr inbounds nuw %struct.Kit_DsdNtk_t_, ptr %13, i32 0, i32 6
  %15 = load ptr, ptr %14, align 8, !tbaa !47
  %16 = load i32, ptr %4, align 4, !tbaa !3
  %17 = load ptr, ptr %3, align 8, !tbaa !37
  %18 = getelementptr inbounds nuw %struct.Kit_DsdNtk_t_, ptr %17, i32 0, i32 0
  %19 = load i16, ptr %18, align 8, !tbaa !41
  %20 = zext i16 %19 to i32
  %21 = sub nsw i32 %16, %20
  %22 = sext i32 %21 to i64
  %23 = getelementptr inbounds ptr, ptr %15, i64 %22
  %24 = load ptr, ptr %23, align 8, !tbaa !39
  br label %25

25:                                               ; preds = %12, %11
  %26 = phi ptr [ null, %11 ], [ %24, %12 ]
  ret ptr %26
}

; Function Attrs: nounwind uwtable
define void @Kit_DsdPrint2_rec(ptr noundef %0, ptr noundef %1, i32 noundef %2) #0 {
  %4 = alloca ptr, align 8
  %5 = alloca ptr, align 8
  %6 = alloca i32, align 4
  %7 = alloca ptr, align 8
  %8 = alloca i32, align 4
  %9 = alloca i32, align 4
  %10 = alloca i8, align 1
  %11 = alloca i32, align 4
  store ptr %0, ptr %4, align 8, !tbaa !51
  store ptr %1, ptr %5, align 8, !tbaa !37
  store i32 %2, ptr %6, align 4, !tbaa !3
  call void @llvm.lifetime.start.p0(i64 8, ptr %7) #9
  call void @llvm.lifetime.start.p0(i64 4, ptr %8) #9
  call void @llvm.lifetime.start.p0(i64 4, ptr %9) #9
  call void @llvm.lifetime.start.p0(i64 1, ptr %10) #9
  %12 = load ptr, ptr %5, align 8, !tbaa !37
  %13 = load i32, ptr %6, align 4, !tbaa !3
  %14 = call ptr @Kit_DsdNtkObj(ptr noundef %12, i32 noundef %13)
  store ptr %14, ptr %7, align 8, !tbaa !39
  %15 = load ptr, ptr %7, align 8, !tbaa !39
  %16 = icmp eq ptr %15, null
  br i1 %16, label %17, label %22

17:                                               ; preds = %3
  %18 = load ptr, ptr %4, align 8, !tbaa !51
  %19 = load i32, ptr %6, align 4, !tbaa !3
  %20 = add nsw i32 97, %19
  %21 = call i32 (ptr, ptr, ...) @fprintf(ptr noundef %18, ptr noundef @.str.1, i32 noundef %20) #9
  store i32 1, ptr %11, align 4
  br label %123

22:                                               ; preds = %3
  %23 = load ptr, ptr %7, align 8, !tbaa !39
  %24 = load i32, ptr %23, align 4
  %25 = lshr i32 %24, 6
  %26 = and i32 %25, 7
  %27 = icmp eq i32 %26, 1
  br i1 %27, label %28, label %31

28:                                               ; preds = %22
  %29 = load ptr, ptr %4, align 8, !tbaa !51
  %30 = call i32 (ptr, ptr, ...) @fprintf(ptr noundef %29, ptr noundef @.str.2) #9
  store i32 1, ptr %11, align 4
  br label %123

31:                                               ; preds = %22
  %32 = load ptr, ptr %7, align 8, !tbaa !39
  %33 = load i32, ptr %32, align 4
  %34 = lshr i32 %33, 6
  %35 = and i32 %34, 7
  %36 = icmp eq i32 %35, 2
  br i1 %36, label %37, label %38

37:                                               ; preds = %31
  br label %38

38:                                               ; preds = %37, %31
  %39 = load ptr, ptr %7, align 8, !tbaa !39
  %40 = load i32, ptr %39, align 4
  %41 = lshr i32 %40, 6
  %42 = and i32 %41, 7
  %43 = icmp eq i32 %42, 3
  br i1 %43, label %44, label %45

44:                                               ; preds = %38
  store i8 42, ptr %10, align 1, !tbaa !56
  br label %54

45:                                               ; preds = %38
  %46 = load ptr, ptr %7, align 8, !tbaa !39
  %47 = load i32, ptr %46, align 4
  %48 = lshr i32 %47, 6
  %49 = and i32 %48, 7
  %50 = icmp eq i32 %49, 4
  br i1 %50, label %51, label %52

51:                                               ; preds = %45
  store i8 43, ptr %10, align 1, !tbaa !56
  br label %53

52:                                               ; preds = %45
  store i8 44, ptr %10, align 1, !tbaa !56
  br label %53

53:                                               ; preds = %52, %51
  br label %54

54:                                               ; preds = %53, %44
  %55 = load ptr, ptr %7, align 8, !tbaa !39
  %56 = load i32, ptr %55, align 4
  %57 = lshr i32 %56, 6
  %58 = and i32 %57, 7
  %59 = icmp eq i32 %58, 5
  br i1 %59, label %60, label %63

60:                                               ; preds = %54
  %61 = load ptr, ptr %4, align 8, !tbaa !51
  %62 = call i32 (ptr, ptr, ...) @fprintf(ptr noundef %61, ptr noundef @.str.3) #9
  br label %66

63:                                               ; preds = %54
  %64 = load ptr, ptr %4, align 8, !tbaa !51
  %65 = call i32 (ptr, ptr, ...) @fprintf(ptr noundef %64, ptr noundef @.str.4) #9
  br label %66

66:                                               ; preds = %63, %60
  store i32 0, ptr %9, align 4, !tbaa !3
  br label %67

67:                                               ; preds = %107, %66
  %68 = load i32, ptr %9, align 4, !tbaa !3
  %69 = load ptr, ptr %7, align 8, !tbaa !39
  %70 = load i32, ptr %69, align 4
  %71 = lshr i32 %70, 26
  %72 = icmp ult i32 %68, %71
  br i1 %72, label %73, label %81

73:                                               ; preds = %67
  %74 = load ptr, ptr %7, align 8, !tbaa !39
  %75 = getelementptr inbounds nuw %struct.Kit_DsdObj_t_, ptr %74, i32 0, i32 1
  %76 = load i32, ptr %9, align 4, !tbaa !3
  %77 = zext i32 %76 to i64
  %78 = getelementptr inbounds nuw [0 x i16], ptr %75, i64 0, i64 %77
  %79 = load i16, ptr %78, align 2, !tbaa !58
  %80 = zext i16 %79 to i32
  store i32 %80, ptr %8, align 4, !tbaa !3
  br label %81

81:                                               ; preds = %73, %67
  %82 = phi i1 [ false, %67 ], [ true, %73 ]
  br i1 %82, label %83, label %110

83:                                               ; preds = %81
  %84 = load i32, ptr %8, align 4, !tbaa !3
  %85 = call i32 @Abc_LitIsCompl(i32 noundef %84)
  %86 = icmp ne i32 %85, 0
  br i1 %86, label %87, label %90

87:                                               ; preds = %83
  %88 = load ptr, ptr %4, align 8, !tbaa !51
  %89 = call i32 (ptr, ptr, ...) @fprintf(ptr noundef %88, ptr noundef @.str.5) #9
  br label %90

90:                                               ; preds = %87, %83
  %91 = load ptr, ptr %4, align 8, !tbaa !51
  %92 = load ptr, ptr %5, align 8, !tbaa !37
  %93 = load i32, ptr %8, align 4, !tbaa !3
  %94 = call i32 @Abc_Lit2Var(i32 noundef %93)
  call void @Kit_DsdPrint2_rec(ptr noundef %91, ptr noundef %92, i32 noundef %94)
  %95 = load i32, ptr %9, align 4, !tbaa !3
  %96 = load ptr, ptr %7, align 8, !tbaa !39
  %97 = load i32, ptr %96, align 4
  %98 = lshr i32 %97, 26
  %99 = sub nsw i32 %98, 1
  %100 = icmp ult i32 %95, %99
  br i1 %100, label %101, label %106

101:                                              ; preds = %90
  %102 = load ptr, ptr %4, align 8, !tbaa !51
  %103 = load i8, ptr %10, align 1, !tbaa !56
  %104 = sext i8 %103 to i32
  %105 = call i32 (ptr, ptr, ...) @fprintf(ptr noundef %102, ptr noundef @.str.1, i32 noundef %104) #9
  br label %106

106:                                              ; preds = %101, %90
  br label %107

107:                                              ; preds = %106
  %108 = load i32, ptr %9, align 4, !tbaa !3
  %109 = add i32 %108, 1
  store i32 %109, ptr %9, align 4, !tbaa !3
  br label %67, !llvm.loop !59

110:                                              ; preds = %81
  %111 = load ptr, ptr %7, align 8, !tbaa !39
  %112 = load i32, ptr %111, align 4
  %113 = lshr i32 %112, 6
  %114 = and i32 %113, 7
  %115 = icmp eq i32 %114, 5
  br i1 %115, label %116, label %119

116:                                              ; preds = %110
  %117 = load ptr, ptr %4, align 8, !tbaa !51
  %118 = call i32 (ptr, ptr, ...) @fprintf(ptr noundef %117, ptr noundef @.str.6) #9
  br label %122

119:                                              ; preds = %110
  %120 = load ptr, ptr %4, align 8, !tbaa !51
  %121 = call i32 (ptr, ptr, ...) @fprintf(ptr noundef %120, ptr noundef @.str.7) #9
  br label %122

122:                                              ; preds = %119, %116
  store i32 0, ptr %11, align 4
  br label %123

123:                                              ; preds = %122, %28, %17
  call void @llvm.lifetime.end.p0(i64 1, ptr %10) #9
  call void @llvm.lifetime.end.p0(i64 4, ptr %9) #9
  call void @llvm.lifetime.end.p0(i64 4, ptr %8) #9
  call void @llvm.lifetime.end.p0(i64 8, ptr %7) #9
  %124 = load i32, ptr %11, align 4
  switch i32 %124, label %126 [
    i32 0, label %125
    i32 1, label %125
  ]

125:                                              ; preds = %123, %123
  ret void

126:                                              ; preds = %123
  unreachable
}