; Function Attrs: nofree nounwind uwtable
define void @Kit_DsdPrint2_rec(ptr noundef captures(none) %0, ptr noundef readonly captures(none) %1, i32 noundef %2) local_unnamed_addr #10 {
  %4 = load i16, ptr %1, align 8, !tbaa !34
  %5 = zext i16 %4 to i32
  %6 = icmp slt i32 %2, %5
  br i1 %6, label %Kit_DsdNtkObj.exit.thread, label %Kit_DsdNtkObj.exit

Kit_DsdNtkObj.exit:                               ; preds = %3
  %7 = getelementptr inbounds nuw i8, ptr %1, i64 24
  %8 = load ptr, ptr %7, align 8, !tbaa !40
  %9 = sub nsw i32 %2, %5
  %10 = sext i32 %9 to i64
  %11 = getelementptr inbounds ptr, ptr %8, i64 %10
  %12 = load ptr, ptr %11, align 8, !tbaa !41
  %13 = icmp eq ptr %12, null
  br i1 %13, label %Kit_DsdNtkObj.exit.thread, label %15

Kit_DsdNtkObj.exit.thread:                        ; preds = %3, %Kit_DsdNtkObj.exit
  %14 = add nsw i32 %2, 97
  %fputc37 = tail call i32 @fputc(i32 %14, ptr %0)
  br label %50

15:                                               ; preds = %Kit_DsdNtkObj.exit
  %16 = load i32, ptr %12, align 4
  %17 = lshr i32 %16, 6
  %18 = and i32 %17, 7
  switch i32 %18, label %22 [
    i32 1, label %19
    i32 3, label %23
    i32 4, label %21
  ]

19:                                               ; preds = %15
  %20 = tail call i64 @fwrite(ptr nonnull @.str.2, i64 6, i64 1, ptr %0)
  br label %50

21:                                               ; preds = %15
  br label %23

22:                                               ; preds = %15
  br label %23

23:                                               ; preds = %15, %21, %22
  %.0 = phi i32 [ 43, %21 ], [ 44, %22 ], [ 42, %15 ]
  %24 = and i32 %16, 448
  %25 = icmp eq i32 %24, 320
  %. = select i1 %25, i32 91, i32 40
  %fputc = tail call i32 @fputc(i32 %., ptr %0)
  %26 = load i32, ptr %12, align 4
  %.not39 = icmp ult i32 %26, 67108864
  br i1 %.not39, label %.critedge, label %.lr.ph

.lr.ph:                                           ; preds = %23
  %27 = getelementptr inbounds nuw i8, ptr %12, i64 4
  br label %28

28:                                               ; preds = %.lr.ph, %42
  %indvars.iv = phi i64 [ 0, %.lr.ph ], [ %indvars.iv.next, %42 ]
  %29 = getelementptr inbounds nuw [0 x i16], ptr %27, i64 0, i64 %indvars.iv
  %30 = load i16, ptr %29, align 2, !tbaa !49
  %31 = zext i16 %30 to i32
  %32 = and i32 %31, 1
  %.not = icmp eq i32 %32, 0
  br i1 %.not, label %34, label %33

33:                                               ; preds = %28
  %fputc35 = tail call i32 @fputc(i32 33, ptr %0)
  br label %34

34:                                               ; preds = %33, %28
  %35 = lshr i32 %31, 1
  tail call void @Kit_DsdPrint2_rec(ptr noundef %0, ptr noundef nonnull %1, i32 noundef %35)
  %36 = load i32, ptr %12, align 4
  %37 = lshr i32 %36, 26
  %38 = add nsw i32 %37, -1
  %39 = zext i32 %38 to i64
  %40 = icmp samesign ult i64 %indvars.iv, %39
  br i1 %40, label %41, label %42

41:                                               ; preds = %34
  %fputc36 = tail call i32 @fputc(i32 %.0, ptr %0)
  %.pre = load i32, ptr %12, align 4
  %.pre42 = lshr i32 %.pre, 26
  br label %42

42:                                               ; preds = %34, %41
  %.pre-phi = phi i32 [ %37, %34 ], [ %.pre42, %41 ]
  %43 = phi i32 [ %36, %34 ], [ %.pre, %41 ]
  %indvars.iv.next = add nuw nsw i64 %indvars.iv, 1
  %44 = zext nneg i32 %.pre-phi to i64
  %45 = icmp samesign ult i64 %indvars.iv.next, %44
  br i1 %45, label %28, label %.critedge, !llvm.loop !50

.critedge:                                        ; preds = %42, %23
  %.lcssa = phi i32 [ %26, %23 ], [ %43, %42 ]
  %46 = and i32 %.lcssa, 448
  %47 = icmp eq i32 %46, 320
  br i1 %47, label %48, label %49

48:                                               ; preds = %.critedge
  %fputc34 = tail call i32 @fputc(i32 93, ptr %0)
  br label %50

49:                                               ; preds = %.critedge
  %fputc33 = tail call i32 @fputc(i32 41, ptr %0)
  br label %50

50:                                               ; preds = %48, %49, %19, %Kit_DsdNtkObj.exit.thread
  ret void
}